target datalayout = "e-m:e-p270:32:32-p271:32:32-p272:64:64-i64:64-i128:128-f80:128-n8:16:32:64-S128"
target triple = "x86_64-pc-linux-gnu"

; Function Attrs: mustprogress uwtable
define ptr @ggml_backend_init_best() #0 {
  %1 = alloca ptr, align 8
  %2 = alloca ptr, align 8
  %3 = alloca i32, align 4
  call void @llvm.lifetime.start.p0(i64 8, ptr %2) #6
  %4 = call ptr @ggml_backend_dev_by_type(i32 noundef 1)
  store ptr %4, ptr %2, align 8, !tbaa !30
  %5 = load ptr, ptr %2, align 8, !tbaa !30
  %6 = icmp ne ptr %5, null
  br i1 %6, label %9, label %7

7:                                                ; preds = %0
  %8 = call ptr @ggml_backend_dev_by_type(i32 noundef 0)
  store ptr %8, ptr %2, align 8, !tbaa !30
  br label %9

9:                                                ; preds = %7, %0
  %10 = load ptr, ptr %2, align 8, !tbaa !30
  %11 = icmp ne ptr %10, null
  br i1 %11, label %13, label %12

12:                                               ; preds = %9
  store ptr null, ptr %1, align 8
  store i32 1, ptr %3, align 4
  br label %16

13:                                               ; preds = %9
  %14 = load ptr, ptr %2, align 8, !tbaa !30
  %15 = call ptr @ggml_backend_dev_init(ptr noundef %14, ptr noundef null)
  store ptr %15, ptr %1, align 8
  store i32 1, ptr %3, align 4
  br label %16

16:                                               ; preds = %13, %12
  call void @llvm.lifetime.end.p0(i64 8, ptr %2) #6
  %17 = load ptr, ptr %1, align 8
  ret ptr %17
}