; Function Attrs: mustprogress uwtable
define ptr @ggml_backend_init_best() local_unnamed_addr #0 {
  %1 = tail call ptr @ggml_backend_dev_by_type(i32 noundef 1)
  %.not = icmp eq ptr %1, null
  br i1 %.not, label %2, label %.thread

2:                                                ; preds = %0
  %3 = tail call ptr @ggml_backend_dev_by_type(i32 noundef 0)
  %.not6 = icmp eq ptr %3, null
  br i1 %.not6, label %5, label %.thread

.thread:                                          ; preds = %0, %2
  %.09 = phi ptr [ %3, %2 ], [ %1, %0 ]
  %4 = tail call ptr @ggml_backend_dev_init(ptr noundef nonnull %.09, ptr noundef null)
  br label %5

5:                                                ; preds = %2, %.thread
  %.04 = phi ptr [ %4, %.thread ], [ null, %2 ]
  ret ptr %.04
}